; Function Attrs: nounwind uwtable
define internal fastcc i32 @save_type(ptr noundef readonly captures(none) %0, ptr noundef %1, ptr noundef %2) unnamed_addr #0 {
  %4 = icmp eq ptr %2, @_PyNone_Type
  br i1 %4, label %5, label %15

5:                                                ; preds = %3
  %6 = tail call ptr (ptr, ...) @Py_BuildValue(ptr noundef nonnull @.str.46, ptr noundef nonnull @PyType_Type, ptr noundef nonnull @_Py_NoneStruct) #13
  %7 = icmp eq ptr %6, null
  br i1 %7, label %save_singleton_type.exit, label %8

8:                                                ; preds = %5
  %9 = tail call fastcc i32 @save_reduce(ptr noundef %0, ptr noundef %1, ptr noundef nonnull %6, ptr noundef nonnull @_PyNone_Type)
  %10 = load i32, ptr %6, align 8, !tbaa !42
  %.not.i.i = icmp sgt i32 %10, -1
  br i1 %.not.i.i, label %11, label %save_singleton_type.exit

11:                                               ; preds = %8
  %12 = add nsw i32 %10, -1
  store i32 %12, ptr %6, align 8, !tbaa !42
  %13 = icmp eq i32 %12, 0
  br i1 %13, label %14, label %save_singleton_type.exit

14:                                               ; preds = %11
  tail call void @_Py_Dealloc(ptr noundef nonnull %6) #13
  br label %save_singleton_type.exit

15:                                               ; preds = %3
  %16 = icmp eq ptr %2, @PyEllipsis_Type
  br i1 %16, label %17, label %27

17:                                               ; preds = %15
  %18 = tail call ptr (ptr, ...) @Py_BuildValue(ptr noundef nonnull @.str.46, ptr noundef nonnull @PyType_Type, ptr noundef nonnull @_Py_EllipsisObject) #13
  %19 = icmp eq ptr %18, null
  br i1 %19, label %save_singleton_type.exit, label %20

20:                                               ; preds = %17
  %21 = tail call fastcc i32 @save_reduce(ptr noundef %0, ptr noundef %1, ptr noundef nonnull %18, ptr noundef nonnull @PyEllipsis_Type)
  %22 = load i32, ptr %18, align 8, !tbaa !42
  %.not.i.i17 = icmp sgt i32 %22, -1
  br i1 %.not.i.i17, label %23, label %save_singleton_type.exit

23:                                               ; preds = %20
  %24 = add nsw i32 %22, -1
  store i32 %24, ptr %18, align 8, !tbaa !42
  %25 = icmp eq i32 %24, 0
  br i1 %25, label %26, label %save_singleton_type.exit

26:                                               ; preds = %23
  tail call void @_Py_Dealloc(ptr noundef nonnull %18) #13
  br label %save_singleton_type.exit

27:                                               ; preds = %15
  %28 = icmp eq ptr %2, @_PyNotImplemented_Type
  br i1 %28, label %29, label %39

29:                                               ; preds = %27
  %30 = tail call ptr (ptr, ...) @Py_BuildValue(ptr noundef nonnull @.str.46, ptr noundef nonnull @PyType_Type, ptr noundef nonnull @_Py_NotImplementedStruct) #13
  %31 = icmp eq ptr %30, null
  br i1 %31, label %save_singleton_type.exit, label %32

32:                                               ; preds = %29
  %33 = tail call fastcc i32 @save_reduce(ptr noundef %0, ptr noundef %1, ptr noundef nonnull %30, ptr noundef nonnull @_PyNotImplemented_Type)
  %34 = load i32, ptr %30, align 8, !tbaa !42
  %.not.i.i22 = icmp sgt i32 %34, -1
  br i1 %.not.i.i22, label %35, label %save_singleton_type.exit

35:                                               ; preds = %32
  %36 = add nsw i32 %34, -1
  store i32 %36, ptr %30, align 8, !tbaa !42
  %37 = icmp eq i32 %36, 0
  br i1 %37, label %38, label %save_singleton_type.exit

38:                                               ; preds = %35
  tail call void @_Py_Dealloc(ptr noundef nonnull %30) #13
  br label %save_singleton_type.exit

39:                                               ; preds = %27
  %40 = tail call fastcc i32 @save_global(ptr noundef %0, ptr noundef %1, ptr noundef %2, ptr noundef null)
  br label %save_singleton_type.exit

save_singleton_type.exit:                         ; preds = %29, %38, %35, %32, %17, %26, %23, %20, %5, %14, %11, %8, %39
  %.0 = phi i32 [ %40, %39 ], [ -1, %5 ], [ %9, %14 ], [ %9, %11 ], [ %9, %8 ], [ -1, %17 ], [ %21, %26 ], [ %21, %23 ], [ %21, %20 ], [ -1, %29 ], [ %33, %38 ], [ %33, %35 ], [ %33, %32 ]
  ret i32 %.0
}